target datalayout = "e-m:e-p270:32:32-p271:32:32-p272:64:64-i64:64-i128:128-f80:128-n8:16:32:64-S128"
target triple = "x86_64-pc-linux-gnu"

; Function Attrs: nounwind sspstrong uwtable
define hidden void @FLAC__window_punchout_tukey(ptr noundef %0, i32 noundef %1, float noundef %2, float noundef %3, float noundef %4) #0 {
  %6 = alloca ptr, align 8
  %7 = alloca i32, align 4
  %8 = alloca float, align 4
  %9 = alloca float, align 4
  %10 = alloca float, align 4
  %11 = alloca i32, align 4
  %12 = alloca i32, align 4
  %13 = alloca i32, align 4
  %14 = alloca i32, align 4
  %15 = alloca i32, align 4
  %16 = alloca i32, align 4
  store ptr %0, ptr %6, align 8, !tbaa !3
  store i32 %1, ptr %7, align 4, !tbaa !8
  store float %2, ptr %8, align 4, !tbaa !10
  store float %3, ptr %9, align 4, !tbaa !10
  store float %4, ptr %10, align 4, !tbaa !10
  call void @llvm.lifetime.start.p0(i64 4, ptr %11) #4
  %17 = load float, ptr %9, align 4, !tbaa !10
  %18 = load i32, ptr %7, align 4, !tbaa !8
  %19 = sitofp i32 %18 to float
  %20 = fmul reassoc nsz arcp float %17, %19
  %21 = fptosi float %20 to i32
  store i32 %21, ptr %11, align 4, !tbaa !8
  call void @llvm.lifetime.start.p0(i64 4, ptr %12) #4
  %22 = load float, ptr %10, align 4, !tbaa !10
  %23 = load i32, ptr %7, align 4, !tbaa !8
  %24 = sitofp i32 %23 to float
  %25 = fmul reassoc nsz arcp float %22, %24
  %26 = fptosi float %25 to i32
  store i32 %26, ptr %12, align 4, !tbaa !8
  call void @llvm.lifetime.start.p0(i64 4, ptr %13) #4
  call void @llvm.lifetime.start.p0(i64 4, ptr %14) #4
  call void @llvm.lifetime.start.p0(i64 4, ptr %15) #4
  call void @llvm.lifetime.start.p0(i64 4, ptr %16) #4
  %27 = load float, ptr %8, align 4, !tbaa !10
  %28 = fcmp reassoc nsz arcp ole float %27, 0.000000e+00
  br i1 %28, label %29, label %34

29:                                               ; preds = %5
  %30 = load ptr, ptr %6, align 8, !tbaa !3
  %31 = load i32, ptr %7, align 4, !tbaa !8
  %32 = load float, ptr %9, align 4, !tbaa !10
  %33 = load float, ptr %10, align 4, !tbaa !10
  call void @FLAC__window_punchout_tukey(ptr noundef %30, i32 noundef %31, float noundef 0x3FA99999A0000000, float noundef %32, float noundef %33)
  br label %249

34:                                               ; preds = %5
  %35 = load float, ptr %8, align 4, !tbaa !10
  %36 = fcmp reassoc nsz arcp oge float %35, 1.000000e+00
  br i1 %36, label %37, label %42

37:                                               ; preds = %34
  %38 = load ptr, ptr %6, align 8, !tbaa !3
  %39 = load i32, ptr %7, align 4, !tbaa !8
  %40 = load float, ptr %9, align 4, !tbaa !10
  %41 = load float, ptr %10, align 4, !tbaa !10
  call void @FLAC__window_punchout_tukey(ptr noundef %38, i32 noundef %39, float noundef 0x3FEE666660000000, float noundef %40, float noundef %41)
  br label %248

42:                                               ; preds = %34
  %43 = load float, ptr %8, align 4, !tbaa !10
  %44 = fcmp reassoc nsz arcp ogt float %43, 0.000000e+00
  br i1 %44, label %45, label %48

45:                                               ; preds = %42
  %46 = load float, ptr %8, align 4, !tbaa !10
  %47 = fcmp reassoc nsz arcp olt float %46, 1.000000e+00
  br i1 %47, label %53, label %48

48:                                               ; preds = %45, %42
  %49 = load ptr, ptr %6, align 8, !tbaa !3
  %50 = load i32, ptr %7, align 4, !tbaa !8
  %51 = load float, ptr %9, align 4, !tbaa !10
  %52 = load float, ptr %10, align 4, !tbaa !10
  call void @FLAC__window_punchout_tukey(ptr noundef %49, i32 noundef %50, float noundef 5.000000e-01, float noundef %51, float noundef %52)
  br label %247

53:                                               ; preds = %45
  %54 = load float, ptr %8, align 4, !tbaa !10
  %55 = fdiv reassoc nsz arcp float %54, 2.000000e+00
  %56 = load i32, ptr %11, align 4, !tbaa !8
  %57 = sitofp i32 %56 to float
  %58 = fmul reassoc nsz arcp float %55, %57
  %59 = fptosi float %58 to i32
  store i32 %59, ptr %13, align 4, !tbaa !8
  %60 = load float, ptr %8, align 4, !tbaa !10
  %61 = fdiv reassoc nsz arcp float %60, 2.000000e+00
  %62 = load i32, ptr %7, align 4, !tbaa !8
  %63 = load i32, ptr %12, align 4, !tbaa !8
  %64 = sub nsw i32 %62, %63
  %65 = sitofp i32 %64 to float
  %66 = fmul reassoc nsz arcp float %61, %65
  %67 = fptosi float %66 to i32
  store i32 %67, ptr %14, align 4, !tbaa !8
  store i32 0, ptr %15, align 4, !tbaa !8
  store i32 1, ptr %16, align 4, !tbaa !8
  br label %68

68:                                               ; preds = %92, %53
  %69 = load i32, ptr %15, align 4, !tbaa !8
  %70 = load i32, ptr %13, align 4, !tbaa !8
  %71 = icmp slt i32 %69, %70
  br i1 %71, label %72, label %76

72:                                               ; preds = %68
  %73 = load i32, ptr %15, align 4, !tbaa !8
  %74 = load i32, ptr %7, align 4, !tbaa !8
  %75 = icmp slt i32 %73, %74
  br label %76

76:                                               ; preds = %72, %68
  %77 = phi i1 [ false, %68 ], [ %75, %72 ]
  br i1 %77, label %78, label %97

78:                                               ; preds = %76
  %79 = load i32, ptr %16, align 4, !tbaa !8
  %80 = sitofp i32 %79 to double
  %81 = fmul reassoc nsz arcp double 0x400921FB54442D18, %80
  %82 = load i32, ptr %13, align 4, !tbaa !8
  %83 = sitofp i32 %82 to double
  %84 = fdiv reassoc nsz arcp double %81, %83
  %85 = fptrunc reassoc nsz arcp double %84 to float
  %86 = call reassoc nsz arcp float @cosf(float noundef %85) #4, !tbaa !8
  %87 = call reassoc nsz arcp float @llvm.fmuladd.f32(float -5.000000e-01, float %86, float 5.000000e-01)
  %88 = load ptr, ptr %6, align 8, !tbaa !3
  %89 = load i32, ptr %15, align 4, !tbaa !8
  %90 = sext i32 %89 to i64
  %91 = getelementptr inbounds float, ptr %88, i64 %90
  store float %87, ptr %91, align 4, !tbaa !10
  br label %92

92:                                               ; preds = %78
  %93 = load i32, ptr %15, align 4, !tbaa !8
  %94 = add nsw i32 %93, 1
  store i32 %94, ptr %15, align 4, !tbaa !8
  %95 = load i32, ptr %16, align 4, !tbaa !8
  %96 = add nsw i32 %95, 1
  store i32 %96, ptr %16, align 4, !tbaa !8
  br label %68, !llvm.loop !40

97:                                               ; preds = %76
  br label %98

98:                                               ; preds = %115, %97
  %99 = load i32, ptr %15, align 4, !tbaa !8
  %100 = load i32, ptr %11, align 4, !tbaa !8
  %101 = load i32, ptr %13, align 4, !tbaa !8
  %102 = sub nsw i32 %100, %101
  %103 = icmp slt i32 %99, %102
  br i1 %103, label %104, label %108

104:                                              ; preds = %98
  %105 = load i32, ptr %15, align 4, !tbaa !8
  %106 = load i32, ptr %7, align 4, !tbaa !8
  %107 = icmp slt i32 %105, %106
  br label %108

108:                                              ; preds = %104, %98
  %109 = phi i1 [ false, %98 ], [ %107, %104 ]
  br i1 %109, label %110, label %118

110:                                              ; preds = %108
  %111 = load ptr, ptr %6, align 8, !tbaa !3
  %112 = load i32, ptr %15, align 4, !tbaa !8
  %113 = sext i32 %112 to i64
  %114 = getelementptr inbounds float, ptr %111, i64 %113
  store float 1.000000e+00, ptr %114, align 4, !tbaa !10
  br label %115

115:                                              ; preds = %110
  %116 = load i32, ptr %15, align 4, !tbaa !8
  %117 = add nsw i32 %116, 1
  store i32 %117, ptr %15, align 4, !tbaa !8
  br label %98, !llvm.loop !41

118:                                              ; preds = %108
  %119 = load i32, ptr %13, align 4, !tbaa !8
  store i32 %119, ptr %16, align 4, !tbaa !8
  br label %120

120:                                              ; preds = %144, %118
  %121 = load i32, ptr %15, align 4, !tbaa !8
  %122 = load i32, ptr %11, align 4, !tbaa !8
  %123 = icmp slt i32 %121, %122
  br i1 %123, label %124, label %128

124:                                              ; preds = %120
  %125 = load i32, ptr %15, align 4, !tbaa !8
  %126 = load i32, ptr %7, align 4, !tbaa !8
  %127 = icmp slt i32 %125, %126
  br label %128

128:                                              ; preds = %124, %120
  %129 = phi i1 [ false, %120 ], [ %127, %124 ]
  br i1 %129, label %130, label %149

130:                                              ; preds = %128
  %131 = load i32, ptr %16, align 4, !tbaa !8
  %132 = sitofp i32 %131 to double
  %133 = fmul reassoc nsz arcp double 0x400921FB54442D18, %132
  %134 = load i32, ptr %13, align 4, !tbaa !8
  %135 = sitofp i32 %134 to double
  %136 = fdiv reassoc nsz arcp double %133, %135
  %137 = fptrunc reassoc nsz arcp double %136 to float
  %138 = call reassoc nsz arcp float @cosf(float noundef %137) #4, !tbaa !8
  %139 = call reassoc nsz arcp float @llvm.fmuladd.f32(float -5.000000e-01, float %138, float 5.000000e-01)
  %140 = load ptr, ptr %6, align 8, !tbaa !3
  %141 = load i32, ptr %15, align 4, !tbaa !8
  %142 = sext i32 %141 to i64
  %143 = getelementptr inbounds float, ptr %140, i64 %142
  store float %139, ptr %143, align 4, !tbaa !10
  br label %144

144:                                              ; preds = %130
  %145 = load i32, ptr %15, align 4, !tbaa !8
  %146 = add nsw i32 %145, 1
  store i32 %146, ptr %15, align 4, !tbaa !8
  %147 = load i32, ptr %16, align 4, !tbaa !8
  %148 = add nsw i32 %147, -1
  store i32 %148, ptr %16, align 4, !tbaa !8
  br label %120, !llvm.loop !42

149:                                              ; preds = %128
  br label %150

150:                                              ; preds = %165, %149
  %151 = load i32, ptr %15, align 4, !tbaa !8
  %152 = load i32, ptr %12, align 4, !tbaa !8
  %153 = icmp slt i32 %151, %152
  br i1 %153, label %154, label %158

154:                                              ; preds = %150
  %155 = load i32, ptr %15, align 4, !tbaa !8
  %156 = load i32, ptr %7, align 4, !tbaa !8
  %157 = icmp slt i32 %155, %156
  br label %158

158:                                              ; preds = %154, %150
  %159 = phi i1 [ false, %150 ], [ %157, %154 ]
  br i1 %159, label %160, label %168

160:                                              ; preds = %158
  %161 = load ptr, ptr %6, align 8, !tbaa !3
  %162 = load i32, ptr %15, align 4, !tbaa !8
  %163 = sext i32 %162 to i64
  %164 = getelementptr inbounds float, ptr %161, i64 %163
  store float 0.000000e+00, ptr %164, align 4, !tbaa !10
  br label %165

165:                                              ; preds = %160
  %166 = load i32, ptr %15, align 4, !tbaa !8
  %167 = add nsw i32 %166, 1
  store i32 %167, ptr %15, align 4, !tbaa !8
  br label %150, !llvm.loop !43

168:                                              ; preds = %158
  store i32 1, ptr %16, align 4, !tbaa !8
  br label %169

169:                                              ; preds = %195, %168
  %170 = load i32, ptr %15, align 4, !tbaa !8
  %171 = load i32, ptr %12, align 4, !tbaa !8
  %172 = load i32, ptr %14, align 4, !tbaa !8
  %173 = add nsw i32 %171, %172
  %174 = icmp slt i32 %170, %173
  br i1 %174, label %175, label %179

175:                                              ; preds = %169
  %176 = load i32, ptr %15, align 4, !tbaa !8
  %177 = load i32, ptr %7, align 4, !tbaa !8
  %178 = icmp slt i32 %176, %177
  br label %179

179:                                              ; preds = %175, %169
  %180 = phi i1 [ false, %169 ], [ %178, %175 ]
  br i1 %180, label %181, label %200

181:                                              ; preds = %179
  %182 = load i32, ptr %16, align 4, !tbaa !8
  %183 = sitofp i32 %182 to double
  %184 = fmul reassoc nsz arcp double 0x400921FB54442D18, %183
  %185 = load i32, ptr %14, align 4, !tbaa !8
  %186 = sitofp i32 %185 to double
  %187 = fdiv reassoc nsz arcp double %184, %186
  %188 = fptrunc reassoc nsz arcp double %187 to float
  %189 = call reassoc nsz arcp float @cosf(float noundef %188) #4, !tbaa !8
  %190 = call reassoc nsz arcp float @llvm.fmuladd.f32(float -5.000000e-01, float %189, float 5.000000e-01)
  %191 = load ptr, ptr %6, align 8, !tbaa !3
  %192 = load i32, ptr %15, align 4, !tbaa !8
  %193 = sext i32 %192 to i64
  %194 = getelementptr inbounds float, ptr %191, i64 %193
  store float %190, ptr %194, align 4, !tbaa !10
  br label %195

195:                                              ; preds = %181
  %196 = load i32, ptr %15, align 4, !tbaa !8
  %197 = add nsw i32 %196, 1
  store i32 %197, ptr %15, align 4, !tbaa !8
  %198 = load i32, ptr %16, align 4, !tbaa !8
  %199 = add nsw i32 %198, 1
  store i32 %199, ptr %16, align 4, !tbaa !8
  br label %169, !llvm.loop !44

200:                                              ; preds = %179
  br label %201

201:                                              ; preds = %218, %200
  %202 = load i32, ptr %15, align 4, !tbaa !8
  %203 = load i32, ptr %7, align 4, !tbaa !8
  %204 = load i32, ptr %14, align 4, !tbaa !8
  %205 = sub nsw i32 %203, %204
  %206 = icmp slt i32 %202, %205
  br i1 %206, label %207, label %211

207:                                              ; preds = %201
  %208 = load i32, ptr %15, align 4, !tbaa !8
  %209 = load i32, ptr %7, align 4, !tbaa !8
  %210 = icmp slt i32 %208, %209
  br label %211

211:                                              ; preds = %207, %201
  %212 = phi i1 [ false, %201 ], [ %210, %207 ]
  br i1 %212, label %213, label %221

213:                                              ; preds = %211
  %214 = load ptr, ptr %6, align 8, !tbaa !3
  %215 = load i32, ptr %15, align 4, !tbaa !8
  %216 = sext i32 %215 to i64
  %217 = getelementptr inbounds float, ptr %214, i64 %216
  store float 1.000000e+00, ptr %217, align 4, !tbaa !10
  br label %218

218:                                              ; preds = %213
  %219 = load i32, ptr %15, align 4, !tbaa !8
  %220 = add nsw i32 %219, 1
  store i32 %220, ptr %15, align 4, !tbaa !8
  br label %201, !llvm.loop !45

221:                                              ; preds = %211
  %222 = load i32, ptr %14, align 4, !tbaa !8
  store i32 %222, ptr %16, align 4, !tbaa !8
  br label %223

223:                                              ; preds = %241, %221
  %224 = load i32, ptr %15, align 4, !tbaa !8
  %225 = load i32, ptr %7, align 4, !tbaa !8
  %226 = icmp slt i32 %224, %225
  br i1 %226, label %227, label %246

227:                                              ; preds = %223
  %228 = load i32, ptr %16, align 4, !tbaa !8
  %229 = sitofp i32 %228 to double
  %230 = fmul reassoc nsz arcp double 0x400921FB54442D18, %229
  %231 = load i32, ptr %14, align 4, !tbaa !8
  %232 = sitofp i32 %231 to double
  %233 = fdiv reassoc nsz arcp double %230, %232
  %234 = fptrunc reassoc nsz arcp double %233 to float
  %235 = call reassoc nsz arcp float @cosf(float noundef %234) #4, !tbaa !8
  %236 = call reassoc nsz arcp float @llvm.fmuladd.f32(float -5.000000e-01, float %235, float 5.000000e-01)
  %237 = load ptr, ptr %6, align 8, !tbaa !3
  %238 = load i32, ptr %15, align 4, !tbaa !8
  %239 = sext i32 %238 to i64
  %240 = getelementptr inbounds float, ptr %237, i64 %239
  store float %236, ptr %240, align 4, !tbaa !10
  br label %241

241:                                              ; preds = %227
  %242 = load i32, ptr %15, align 4, !tbaa !8
  %243 = add nsw i32 %242, 1
  store i32 %243, ptr %15, align 4, !tbaa !8
  %244 = load i32, ptr %16, align 4, !tbaa !8
  %245 = add nsw i32 %244, -1
  store i32 %245, ptr %16, align 4, !tbaa !8
  br label %223, !llvm.loop !46

246:                                              ; preds = %223
  br label %247

247:                                              ; preds = %246, %48
  br label %248

248:                                              ; preds = %247, %37
  br label %249

249:                                              ; preds = %248, %29
  call void @llvm.lifetime.end.p0(i64 4, ptr %16) #4
  call void @llvm.lifetime.end.p0(i64 4, ptr %15) #4
  call void @llvm.lifetime.end.p0(i64 4, ptr %14) #4
  call void @llvm.lifetime.end.p0(i64 4, ptr %13) #4
  call void @llvm.lifetime.end.p0(i64 4, ptr %12) #4
  call void @llvm.lifetime.end.p0(i64 4, ptr %11) #4
  ret void
}