; Function Attrs: nofree nounwind sspstrong memory(write) uwtable
define hidden void @FLAC__window_punchout_tukey(ptr noundef writeonly captures(none) %0, i32 noundef %1, float noundef %2, float noundef %3, float noundef %4) local_unnamed_addr #1 {
  br label %tailrecurse

tailrecurse:                                      ; preds = %tailrecurse.backedge, %5
  %.tr96 = phi float [ %2, %5 ], [ %.tr96.be, %tailrecurse.backedge ]
  %6 = fcmp reassoc nsz arcp ugt float %.tr96, 0.000000e+00
  br i1 %6, label %7, label %tailrecurse.backedge

tailrecurse.backedge:                             ; preds = %tailrecurse, %7, %9
  %.tr96.be = phi float [ 0x3FA99999A0000000, %tailrecurse ], [ 0x3FEE666660000000, %7 ], [ 5.000000e-01, %9 ]
  br label %tailrecurse

7:                                                ; preds = %tailrecurse
  %8 = fcmp reassoc nsz arcp ult float %.tr96, 1.000000e+00
  br i1 %8, label %9, label %tailrecurse.backedge

9:                                                ; preds = %7
  %10 = fcmp reassoc nsz arcp ogt float %.tr96, 0.000000e+00
  %11 = fcmp reassoc nsz arcp olt float %.tr96, 1.000000e+00
  %or.cond = and i1 %10, %11
  br i1 %or.cond, label %12, label %tailrecurse.backedge

12:                                               ; preds = %9
  %13 = sitofp i32 %1 to float
  %14 = fmul reassoc nsz arcp float %3, %13
  %15 = fptosi float %14 to i32
  %16 = fmul reassoc nsz arcp float %4, %13
  %17 = fptosi float %16 to i32
  %18 = fmul reassoc nsz arcp float %.tr96, 5.000000e-01
  %19 = sitofp i32 %15 to float
  %20 = fmul reassoc nsz arcp float %18, %19
  %21 = fptosi float %20 to i32
  %22 = sub nsw i32 %1, %17
  %23 = sitofp i32 %22 to float
  %24 = fmul reassoc nsz arcp float %18, %23
  %25 = fptosi float %24 to i32
  %invariant.smin = tail call i32 @llvm.smin.i32(i32 %21, i32 %1)
  %26 = icmp sgt i32 %invariant.smin, 0
  br i1 %26, label %.lr.ph, label %.preheader103

.lr.ph:                                           ; preds = %12
  %27 = sitofp i32 %21 to double
  %wide.trip.count = zext nneg i32 %invariant.smin to i64
  %28 = fdiv reassoc nsz arcp double 1.000000e+00, %27
  br label %32

.preheader103:                                    ; preds = %32, %12
  %.089.lcssa = phi i32 [ 0, %12 ], [ %invariant.smin, %32 ]
  %29 = sub nsw i32 %15, %21
  %invariant.smin110 = tail call i32 @llvm.smin.i32(i32 %29, i32 %1)
  %30 = icmp slt i32 %.089.lcssa, %invariant.smin110
  br i1 %30, label %.lr.ph112.preheader, label %.preheader102

.lr.ph112.preheader:                              ; preds = %.preheader103
  %31 = zext nneg i32 %.089.lcssa to i64
  %wide.trip.count144 = zext i32 %invariant.smin110 to i64
  br label %.lr.ph112

32:                                               ; preds = %.lr.ph, %32
  %indvars.iv = phi i64 [ 0, %.lr.ph ], [ %indvars.iv.next, %32 ]
  %.0109 = phi i32 [ 1, %.lr.ph ], [ %40, %32 ]
  %33 = uitofp nneg i32 %.0109 to double
  %34 = fmul reassoc nsz arcp double %33, 0x400921FB54442D18
  %35 = fmul reassoc nsz arcp double %34, %28
  %36 = fptrunc reassoc nsz arcp double %35 to float
  %37 = tail call reassoc nsz arcp float @cosf(float noundef %36) #6, !tbaa !12
  %38 = tail call reassoc nsz arcp float @llvm.fmuladd.f32(float %37, float -5.000000e-01, float 5.000000e-01)
  %39 = getelementptr inbounds nuw float, ptr %0, i64 %indvars.iv
  store float %38, ptr %39, align 4, !tbaa !3
  %indvars.iv.next = add nuw nsw i64 %indvars.iv, 1
  %40 = add nuw nsw i32 %.0109, 1
  %exitcond.not = icmp eq i64 %indvars.iv.next, %wide.trip.count
  br i1 %exitcond.not, label %.preheader103, label %32, !llvm.loop !33

.preheader102:                                    ; preds = %.lr.ph112, %.preheader103
  %.190.lcssa = phi i32 [ %.089.lcssa, %.preheader103 ], [ %invariant.smin110, %.lr.ph112 ]
  %invariant.smin114 = tail call i32 @llvm.smin.i32(i32 %15, i32 %1)
  %41 = icmp slt i32 %.190.lcssa, %invariant.smin114
  br i1 %41, label %.lr.ph117, label %.preheader101

.lr.ph117:                                        ; preds = %.preheader102
  %42 = sitofp i32 %21 to double
  %43 = zext i32 %.190.lcssa to i64
  %44 = fdiv reassoc nsz arcp double 1.000000e+00, %42
  br label %54

.lr.ph112:                                        ; preds = %.lr.ph112.preheader, %.lr.ph112
  %indvars.iv141 = phi i64 [ %31, %.lr.ph112.preheader ], [ %indvars.iv.next142, %.lr.ph112 ]
  %45 = getelementptr inbounds nuw float, ptr %0, i64 %indvars.iv141
  store float 1.000000e+00, ptr %45, align 4, !tbaa !3
  %indvars.iv.next142 = add nuw nsw i64 %indvars.iv141, 1
  %exitcond145.not = icmp eq i64 %indvars.iv.next142, %wide.trip.count144
  br i1 %exitcond145.not, label %.preheader102, label %.lr.ph112, !llvm.loop !34

.preheader101:                                    ; preds = %54, %.preheader102
  %.291.lcssa = phi i32 [ %.190.lcssa, %.preheader102 ], [ %63, %54 ]
  %invariant.smin119 = tail call i32 @llvm.smin.i32(i32 %17, i32 %1)
  %46 = icmp slt i32 %.291.lcssa, %invariant.smin119
  br i1 %46, label %.lr.ph121.preheader, label %.preheader100

.lr.ph121.preheader:                              ; preds = %.preheader101
  %47 = zext i32 %.291.lcssa to i64
  %48 = shl nuw nsw i64 %47, 2
  %scevgep = getelementptr i8, ptr %0, i64 %48
  %49 = xor i32 %.291.lcssa, -1
  %50 = add i32 %invariant.smin119, %49
  %51 = zext i32 %50 to i64
  %52 = shl nuw nsw i64 %51, 2
  %53 = add nuw nsw i64 %52, 4
  tail call void @llvm.memset.p0.i64(ptr noundef nonnull align 4 dereferenceable(1) %scevgep, i8 0, i64 %53, i1 false), !tbaa !3
  br label %.lr.ph121

54:                                               ; preds = %.lr.ph117, %54
  %indvars.iv146 = phi i64 [ %43, %.lr.ph117 ], [ %indvars.iv.next147, %54 ]
  %.1116 = phi i32 [ %21, %.lr.ph117 ], [ %62, %54 ]
  %55 = sitofp i32 %.1116 to double
  %56 = fmul reassoc nsz arcp double %55, 0x400921FB54442D18
  %57 = fmul reassoc nsz arcp double %56, %44
  %58 = fptrunc reassoc nsz arcp double %57 to float
  %59 = tail call reassoc nsz arcp float @cosf(float noundef %58) #6, !tbaa !12
  %60 = tail call reassoc nsz arcp float @llvm.fmuladd.f32(float %59, float -5.000000e-01, float 5.000000e-01)
  %61 = getelementptr inbounds nuw float, ptr %0, i64 %indvars.iv146
  store float %60, ptr %61, align 4, !tbaa !3
  %indvars.iv.next147 = add nuw nsw i64 %indvars.iv146, 1
  %62 = add nsw i32 %.1116, -1
  %63 = trunc nuw i64 %indvars.iv.next147 to i32
  %64 = icmp sgt i32 %invariant.smin114, %63
  br i1 %64, label %54, label %.preheader101, !llvm.loop !35

.preheader100:                                    ; preds = %.lr.ph121, %.preheader101
  %.392.lcssa = phi i32 [ %.291.lcssa, %.preheader101 ], [ %72, %.lr.ph121 ]
  %65 = add nsw i32 %25, %17
  %invariant.smin123 = tail call i32 @llvm.smin.i32(i32 %65, i32 %1)
  %66 = icmp slt i32 %.392.lcssa, %invariant.smin123
  br i1 %66, label %.lr.ph126, label %.preheader99

.lr.ph126:                                        ; preds = %.preheader100
  %67 = sitofp i32 %25 to double
  %68 = zext i32 %.392.lcssa to i64
  %69 = add i32 %invariant.smin123, 1
  %70 = sub i32 %69, %.392.lcssa
  %71 = fdiv reassoc nsz arcp double 1.000000e+00, %67
  br label %78

.lr.ph121:                                        ; preds = %.lr.ph121.preheader, %.lr.ph121
  %indvars.iv149 = phi i64 [ %47, %.lr.ph121.preheader ], [ %indvars.iv.next150, %.lr.ph121 ]
  %indvars.iv.next150 = add nuw nsw i64 %indvars.iv149, 1
  %72 = trunc nuw i64 %indvars.iv.next150 to i32
  %73 = icmp sgt i32 %invariant.smin119, %72
  br i1 %73, label %.lr.ph121, label %.preheader100, !llvm.loop !36

.preheader99.loopexit:                            ; preds = %78
  %74 = trunc nuw i64 %indvars.iv.next153 to i32
  br label %.preheader99

.preheader99:                                     ; preds = %.preheader99.loopexit, %.preheader100
  %.4.lcssa = phi i32 [ %.392.lcssa, %.preheader100 ], [ %74, %.preheader99.loopexit ]
  %75 = sub nsw i32 %1, %25
  %invariant.smin128 = tail call i32 @llvm.smin.i32(i32 %75, i32 %1)
  %76 = icmp slt i32 %.4.lcssa, %invariant.smin128
  br i1 %76, label %.lr.ph130.preheader, label %.preheader

.lr.ph130.preheader:                              ; preds = %.preheader99
  %77 = zext i32 %.4.lcssa to i64
  br label %.lr.ph130

78:                                               ; preds = %.lr.ph126, %78
  %indvars.iv152 = phi i64 [ %68, %.lr.ph126 ], [ %indvars.iv.next153, %78 ]
  %.2125 = phi i32 [ 1, %.lr.ph126 ], [ %86, %78 ]
  %79 = uitofp nneg i32 %.2125 to double
  %80 = fmul reassoc nsz arcp double %79, 0x400921FB54442D18
  %81 = fmul reassoc nsz arcp double %80, %71
  %82 = fptrunc reassoc nsz arcp double %81 to float
  %83 = tail call reassoc nsz arcp float @cosf(float noundef %82) #6, !tbaa !12
  %84 = tail call reassoc nsz arcp float @llvm.fmuladd.f32(float %83, float -5.000000e-01, float 5.000000e-01)
  %85 = getelementptr inbounds nuw float, ptr %0, i64 %indvars.iv152
  store float %84, ptr %85, align 4, !tbaa !3
  %indvars.iv.next153 = add nuw nsw i64 %indvars.iv152, 1
  %86 = add nuw i32 %.2125, 1
  %exitcond155.not = icmp eq i32 %86, %70
  br i1 %exitcond155.not, label %.preheader99.loopexit, label %78, !llvm.loop !37

.preheader:                                       ; preds = %.lr.ph130, %.preheader99
  %.5.lcssa = phi i32 [ %.4.lcssa, %.preheader99 ], [ %92, %.lr.ph130 ]
  %87 = icmp slt i32 %.5.lcssa, %1
  br i1 %87, label %.lr.ph134, label %._crit_edge

.lr.ph134:                                        ; preds = %.preheader
  %88 = sitofp i32 %25 to double
  %89 = sext i32 %.5.lcssa to i64
  %wide.trip.count162 = sext i32 %1 to i64
  %90 = fdiv reassoc nsz arcp double 1.000000e+00, %88
  br label %94

.lr.ph130:                                        ; preds = %.lr.ph130.preheader, %.lr.ph130
  %indvars.iv156 = phi i64 [ %77, %.lr.ph130.preheader ], [ %indvars.iv.next157, %.lr.ph130 ]
  %91 = getelementptr inbounds nuw float, ptr %0, i64 %indvars.iv156
  store float 1.000000e+00, ptr %91, align 4, !tbaa !3
  %indvars.iv.next157 = add nuw nsw i64 %indvars.iv156, 1
  %92 = trunc nuw i64 %indvars.iv.next157 to i32
  %93 = icmp sgt i32 %invariant.smin128, %92
  br i1 %93, label %.lr.ph130, label %.preheader, !llvm.loop !38

94:                                               ; preds = %.lr.ph134, %94
  %indvars.iv159 = phi i64 [ %89, %.lr.ph134 ], [ %indvars.iv.next160, %94 ]
  %.3133 = phi i32 [ %25, %.lr.ph134 ], [ %102, %94 ]
  %95 = sitofp i32 %.3133 to double
  %96 = fmul reassoc nsz arcp double %95, 0x400921FB54442D18
  %97 = fmul reassoc nsz arcp double %96, %90
  %98 = fptrunc reassoc nsz arcp double %97 to float
  %99 = tail call reassoc nsz arcp float @cosf(float noundef %98) #6, !tbaa !12
  %100 = tail call reassoc nsz arcp float @llvm.fmuladd.f32(float %99, float -5.000000e-01, float 5.000000e-01)
  %101 = getelementptr inbounds float, ptr %0, i64 %indvars.iv159
  store float %100, ptr %101, align 4, !tbaa !3
  %indvars.iv.next160 = add nsw i64 %indvars.iv159, 1
  %102 = add nsw i32 %.3133, -1
  %exitcond163.not = icmp eq i64 %indvars.iv.next160, %wide.trip.count162
  br i1 %exitcond163.not, label %._crit_edge, label %94, !llvm.loop !39

._crit_edge:                                      ; preds = %94, %.preheader
  ret void
}